; Function Attrs: mustprogress uwtable
define noundef i32 @_ZN4pkpy15CodeEmitContext13add_func_declESt10shared_ptrINS_8FuncDeclEE(ptr noundef nonnull readonly align 8 captures(none) dereferenceable(232) %0, ptr noundef %1) local_unnamed_addr #5 align 2 personality ptr @__gxx_personality_v0 {
  %3 = getelementptr inbounds nuw i8, ptr %0, i64 24
  %4 = load ptr, ptr %3, align 8
  %5 = getelementptr inbounds nuw i8, ptr %4, i64 392
  %6 = load ptr, ptr %5, align 8
  %7 = getelementptr inbounds nuw i8, ptr %4, i64 400
  %8 = load ptr, ptr %7, align 8
  %.not.i = icmp eq ptr %6, %8
  br i1 %.not.i, label %24, label %9

9:                                                ; preds = %2
  %10 = load ptr, ptr %1, align 8
  store ptr %10, ptr %6, align 8
  %11 = getelementptr inbounds nuw i8, ptr %6, i64 8
  %12 = getelementptr inbounds nuw i8, ptr %1, i64 8
  %13 = load ptr, ptr %12, align 8
  store ptr %13, ptr %11, align 8
  %.not.i.i.i.i.i.i = icmp eq ptr %13, null
  br i1 %.not.i.i.i.i.i.i, label %_ZNSt16allocator_traitsISaISt10shared_ptrIN4pkpy8FuncDeclEEEE9constructIS3_JRKS3_EEEvRS4_PT_DpOT0_.exit.i, label %14

14:                                               ; preds = %9
  %15 = getelementptr inbounds nuw i8, ptr %13, i64 8
  %16 = load i8, ptr @__libc_single_threaded, align 1
  %.not.i.i.i.i.i.i.i = icmp eq i8 %16, 0
  br i1 %.not.i.i.i.i.i.i.i, label %20, label %17

17:                                               ; preds = %14
  %18 = load i32, ptr %15, align 4
  %19 = add nsw i32 %18, 1
  store i32 %19, ptr %15, align 4
  br label %_ZNSt16allocator_traitsISaISt10shared_ptrIN4pkpy8FuncDeclEEEE9constructIS3_JRKS3_EEEvRS4_PT_DpOT0_.exit.i

20:                                               ; preds = %14
  %21 = atomicrmw volatile add ptr %15, i32 1 acq_rel, align 4
  br label %_ZNSt16allocator_traitsISaISt10shared_ptrIN4pkpy8FuncDeclEEEE9constructIS3_JRKS3_EEEvRS4_PT_DpOT0_.exit.i

_ZNSt16allocator_traitsISaISt10shared_ptrIN4pkpy8FuncDeclEEEE9constructIS3_JRKS3_EEEvRS4_PT_DpOT0_.exit.i: ; preds = %20, %17, %9
  %22 = load ptr, ptr %5, align 8
  %23 = getelementptr inbounds nuw i8, ptr %22, i64 16
  store ptr %23, ptr %5, align 8
  br label %_ZNSt6vectorISt10shared_ptrIN4pkpy8FuncDeclEESaIS3_EE9push_backERKS3_.exit

24:                                               ; preds = %2
  %25 = getelementptr inbounds nuw i8, ptr %4, i64 384
  tail call void @_ZNSt6vectorISt10shared_ptrIN4pkpy8FuncDeclEESaIS3_EE17_M_realloc_insertIJRKS3_EEEvN9__gnu_cxx17__normal_iteratorIPS3_S5_EEDpOT_(ptr noundef nonnull align 8 dereferenceable(24) %25, ptr %6, ptr noundef nonnull align 8 dereferenceable(16) %1)
  br label %_ZNSt6vectorISt10shared_ptrIN4pkpy8FuncDeclEESaIS3_EE9push_backERKS3_.exit

_ZNSt6vectorISt10shared_ptrIN4pkpy8FuncDeclEESaIS3_EE9push_backERKS3_.exit: ; preds = %_ZNSt16allocator_traitsISaISt10shared_ptrIN4pkpy8FuncDeclEEEE9constructIS3_JRKS3_EEEvRS4_PT_DpOT0_.exit.i, %24
  %26 = load ptr, ptr %3, align 8
  %27 = getelementptr inbounds nuw i8, ptr %26, i64 384
  %28 = getelementptr inbounds nuw i8, ptr %26, i64 392
  %29 = load ptr, ptr %28, align 8
  %30 = load ptr, ptr %27, align 8
  %31 = ptrtoint ptr %29 to i64
  %32 = ptrtoint ptr %30 to i64
  %33 = sub i64 %31, %32
  %34 = lshr exact i64 %33, 4
  %35 = trunc i64 %34 to i32
  %36 = add i32 %35, -1
  ret i32 %36
}